target datalayout = "e-m:e-p270:32:32-p271:32:32-p272:64:64-i64:64-i128:128-f80:128-n8:16:32:64-S128"
target triple = "x86_64-unknown-linux-gnu"

%"class.std::__shared_count" = type { ptr }
%"class.OpenColorIO_v2_4dev::NamedTransformImpl" = type { %"class.OpenColorIO_v2_4dev::NamedTransform", %"class.std::__cxx11::basic_string", %"class.std::vector", %"class.std::shared_ptr.3", %"class.std::shared_ptr.3", %"class.std::__cxx11::basic_string", %"class.std::__cxx11::basic_string", %"class.OpenColorIO_v2_4dev::TokensManager", %"class.std::__cxx11::basic_string" }
%"class.OpenColorIO_v2_4dev::NamedTransform" = type { ptr }
%"class.std::vector" = type { %"struct.std::_Vector_base" }
%"struct.std::_Vector_base" = type { %"struct.std::_Vector_base<std::__cxx11::basic_string<char>, std::allocator<std::__cxx11::basic_string<char>>>::_Vector_impl" }
%"struct.std::_Vector_base<std::__cxx11::basic_string<char>, std::allocator<std::__cxx11::basic_string<char>>>::_Vector_impl" = type { %"struct.std::_Vector_base<std::__cxx11::basic_string<char>, std::allocator<std::__cxx11::basic_string<char>>>::_Vector_impl_data" }
%"struct.std::_Vector_base<std::__cxx11::basic_string<char>, std::allocator<std::__cxx11::basic_string<char>>>::_Vector_impl_data" = type { ptr, ptr, ptr }
%"class.std::shared_ptr.3" = type { %"class.std::__shared_ptr.4" }
%"class.std::__shared_ptr.4" = type { ptr, %"class.std::__shared_count" }
%"class.OpenColorIO_v2_4dev::TokensManager" = type { ptr, %"class.std::vector" }
%"class.std::__cxx11::basic_string" = type { %"struct.std::__cxx11::basic_string<char>::_Alloc_hider", i64, %union.anon }
%"struct.std::__cxx11::basic_string<char>::_Alloc_hider" = type { ptr }
%union.anon = type { i64, [8 x i8] }

@.str = private unnamed_addr constant [1 x i8] zeroinitializer, align 1

; Function Attrs: mustprogress nounwind uwtable
define hidden void @_ZN19OpenColorIO_v2_4dev18NamedTransformImpl9setFamilyEPKc(ptr noundef nonnull align 8 dereferenceable(224) %this, ptr noundef %family) unnamed_addr #3 align 2 personality ptr @__gxx_personality_v0 {
entry:
  %this.addr = alloca ptr, align 8
  %family.addr = alloca ptr, align 8
  store ptr %this, ptr %this.addr, align 8
  store ptr %family, ptr %family.addr, align 8
  %this1 = load ptr, ptr %this.addr, align 8
  %0 = load ptr, ptr %family.addr, align 8
  %tobool = icmp ne ptr %0, null
  br i1 %tobool, label %cond.true, label %cond.false

cond.true:                                        ; preds = %entry
  %1 = load ptr, ptr %family.addr, align 8
  br label %cond.end

cond.false:                                       ; preds = %entry
  br label %cond.end

cond.end:                                         ; preds = %cond.false, %cond.true
  %cond = phi ptr [ %1, %cond.true ], [ @.str, %cond.false ]
  %m_family = getelementptr inbounds %"class.OpenColorIO_v2_4dev::NamedTransformImpl", ptr %this1, i32 0, i32 5
  %call = invoke noundef nonnull align 8 dereferenceable(32) ptr @_ZNSt7__cxx1112basic_stringIcSt11char_traitsIcESaIcEEaSEPKc(ptr noundef nonnull align 8 dereferenceable(32) %m_family, ptr noundef %cond)
          to label %invoke.cont unwind label %terminate.lpad

invoke.cont:                                      ; preds = %cond.end
  ret void

terminate.lpad:                                   ; preds = %cond.end
  %2 = landingpad { ptr, i32 }
          catch ptr null
  %3 = extractvalue { ptr, i32 } %2, 0
  call void @__clang_call_terminate(ptr %3) #14
  unreachable
}