; Function Attrs: mustprogress nounwind uwtable
define hidden void @_ZN19OpenColorIO_v2_4dev18NamedTransformImpl9setFamilyEPKc(ptr noundef nonnull align 8 dereferenceable(224) %this, ptr noundef %family) unnamed_addr #3 align 2 personality ptr @__gxx_personality_v0 {
entry:
  %tobool.not = icmp eq ptr %family, null
  %cond = select i1 %tobool.not, ptr @.str, ptr %family
  %m_family = getelementptr inbounds i8, ptr %this, i64 96
  %call = invoke noundef nonnull align 8 dereferenceable(32) ptr @_ZNSt7__cxx1112basic_stringIcSt11char_traitsIcESaIcEEaSEPKc(ptr noundef nonnull align 8 dereferenceable(32) %m_family, ptr noundef nonnull %cond)
          to label %invoke.cont unwind label %terminate.lpad

invoke.cont:                                      ; preds = %entry
  ret void

terminate.lpad:                                   ; preds = %entry
  %0 = landingpad { ptr, i32 }
          catch ptr null
  %1 = extractvalue { ptr, i32 } %0, 0
  tail call void @__clang_call_terminate(ptr %1) #19
  unreachable
}